ccopy_reg
_reconstructor
p0
(cmetis.core
Mission
p1
c__builtin__
object
p2
Ntp3
Rp4
(dp5
S'drop_location'
p6
g0
(cmetis.messages
msg_ned
p7
g2
Ntp8
Rp9
(dp10
S'r'
p11
I0
sS'e'
p12
F274.8085316873125
sS'd'
p13
F-22.0
sS'n'
p14
F-49.39001916711286
sbsS'search_area'
p15
(lp16
g0
(g7
g2
Ntp17
Rp18
(dp19
g11
I0
sg12
F124.24330297704306
sg13
F-22.0
sg14
F-205.18729276544133
sbag0
(g7
g2
Ntp20
Rp21
(dp22
g11
I0
sg12
F500.92713021943825
sg13
F-22.0
sg14
F-38.67397316376572
sbag0
(g7
g2
Ntp23
Rp24
(dp25
g11
I0
sg12
F592.9844451252574
sg13
F-22.0
sg14
F-262.2078798163704
sbag0
(g7
g2
Ntp26
Rp27
(dp28
g11
I0
sg12
F361.91252951940254
sg13
F-22.0
sg14
F-508.2696322034076
sbag0
(g7
g2
Ntp29
Rp30
(dp31
g11
I0
sg12
F-239.06884714006478
sg13
F-22.0
sg14
F-564.0820801376871
sbag0
(g7
g2
Ntp32
Rp33
(dp34
g11
I0
sg12
F-358.3797143129981
sg13
F-22.0
sg14
F-353.79593905111625
sbag0
(g7
g2
Ntp35
Rp36
(dp37
g11
I0
sg12
F-219.3356081692433
sg13
F-22.0
sg14
F-234.4767418179959
sbag0
(g7
g2
Ntp38
Rp39
(dp40
g11
I0
sg12
F51.679806887551656
sg13
F-22.0
sg14
F-114.53871511802038
sbag0
(g7
g2
Ntp41
Rp42
(dp43
g11
I0
sg12
F124.24330297704306
sg13
F-22.0
sg14
F-205.18729276544133
sbasS'_boundary_poly'
p44
cshapely.geometry.polygon
Polygon
p45
(tRp46
S'\x01\x03\x00\x00\x00\x01\x00\x00\x00\r\x00\x00\x00z\x02j\xd8\x0c\xe9\x04\xc0\x87\x13\xc7(3z]@A\x00\xd9\xe1\xc9~\x82@a-~\x9f\xba\x17R@aQ\xc6\xe9!i\x83@\xabm\xdc\x00\xedre\xc0\xb8\xad\x1d@\x93\xd7}@\xcb\xe0\xb2\x91\x9e\x07\x80\xc0$\xd5y\xb5\'\xaca@\x91\x10\xfc[\x9f\to\xc0~\xff.k\x84\x90f\xc0\xda\xdb\xe3\x02K\xd6r\xc0\xc8V\xe1\x1cA\x12u\xc0\x1d9u\xf3M\xce|\xc0\xb9\x8dx\x0e-8\x84\xc0\xddx \xc61"q\xc0\xf9\x1c97<U\x83\xc0\rzk\xcdX&s@\x87\x12\x1a\xfa\x14\x90q\xc0h\xfd9`\x16\xbf\x86@\x85\xf3\xd3\nXB]@=&\x00Ug@\x81@<!\x90\xcf\x00\x072\xc0P\r|S\xdaKo@z\x02j\xd8\x0c\xe9\x04\xc0\x87\x13\xc7(3z]@'
p47
bsS'_boundary_list'
p48
(lp49
g0
(g7
g2
Ntp50
Rp51
(dp52
g11
I0
sg12
F117.90937251511615
sg13
F-0.0
sg14
F-2.6137940318442903
sbag0
(g7
g2
Ntp53
Rp54
(dp55
g11
I0
sg12
F72.37076556512831
sg13
F-0.0
sg14
F591.8485753014758
sbag0
(g7
g2
Ntp56
Rp57
(dp58
g11
I0
sg12
F-171.59143107464237
sg13
F-0.0
sg14
F621.1415591710648
sbag0
(g7
g2
Ntp59
Rp60
(dp61
g11
I0
sg12
F-512.9524263357974
sg13
F-0.0
sg14
F477.4734498175926
sbag0
(g7
g2
Ntp62
Rp63
(dp64
g11
I0
sg12
F-248.300703041376
sg13
F-0.0
sg14
F141.379847276644
sbag0
(g7
g2
Ntp65
Rp66
(dp67
g11
I0
sg12
F-301.3933133030638
sg13
F-0.0
sg14
F-180.51616439036655
sbag0
(g7
g2
Ntp68
Rp69
(dp70
g11
I0
sg12
F-460.89403100767396
sg13
F-0.0
sg14
F-337.140896682959
sbag0
(g7
g2
Ntp71
Rp72
(dp73
g11
I0
sg12
F-274.13715183910773
sg13
F-0.0
sg14
F-647.0220002573252
sbag0
(g7
g2
Ntp74
Rp75
(dp76
g11
I0
sg12
F306.396680278617
sg13
F-0.0
sg14
F-618.6544022047011
sbag0
(g7
g2
Ntp77
Rp78
(dp79
g11
I0
sg12
F727.8859257250269
sg13
F-0.0
sg14
F-281.00512132820626
sbag0
(g7
g2
Ntp80
Rp81
(dp82
g11
I0
sg12
F552.0504550944967
sg13
F-0.0
sg14
F117.03662367533077
sbag0
(g7
g2
Ntp83
Rp84
(dp85
g11
I0
sg12
F250.370401136674
sg13
F-0.0
sg14
F-18.027356121719308
sbasS'obstacles'
p86
(lp87
g0
(g7
g2
Ntp88
Rp89
(dp90
g11
F45.720001220703125
sg12
F265.95199780583704
sg13
F228.60000610351562
sg14
F43.96005256926584
sbag0
(g7
g2
Ntp91
Rp92
(dp93
g11
F91.44000244140625
sg12
F-69.07744687400141
sg13
F91.44000244140625
sg14
F-375.0660533173444
sbag0
(g7
g2
Ntp94
Rp95
(dp96
g11
F30.479999542236328
sg12
F-315.6415098832677
sg13
F228.60000610351562
sg14
F356.42480588884376
sbag0
(g7
g2
Ntp97
Rp98
(dp99
g11
F91.44000244140625
sg12
F39.26934944791401
sg13
F228.60000610351562
sg14
F268.3963289444107
sbag0
(g7
g2
Ntp100
Rp101
(dp102
g11
F15.239999771118164
sg12
F294.0122846998297
sg13
F121.91999816894531
sg14
F-231.98306910828163
sbag0
(g7
g2
Ntp103
Rp104
(dp105
g11
F68.58000183105469
sg12
F-107.29343895695025
sg13
F152.39999389648438
sg14
F-32.18907289215243
sbasS'waypoints'
p106
(lp107
g0
(g7
g2
Ntp108
Rp109
(dp110
g11
I0
sg12
F132.76534553624273
sg13
F-82.96000000000001
sg14
F-177.74568569993806
sbag0
(g7
g2
Ntp111
Rp112
(dp113
g11
I0
sg12
F507.98674420801177
sg13
F-113.44
sg14
F-10.923724471522608
sbag0
(g7
g2
Ntp114
Rp115
(dp116
g11
I0
sg12
F610.0298234077096
sg13
F-143.92000000000002
sg14
F-265.9065923576192
sbag0
(g7
g2
Ntp117
Rp118
(dp119
g11
I0
sg12
F385.7760854516563
sg13
F-143.92000000000002
sg14
F-501.79358410519615
sbag0
(g7
g2
Ntp120
Rp121
(dp122
g11
I0
sg12
F73.10745567007206
sg13
F-113.44
sg14
F-104.67195264544033
sbag0
(g7
g2
Ntp123
Rp124
(dp125
g11
I0
sg12
F18.562784252758757
sg13
F-113.44
sg14
F511.0654207196358
sbag0
(g7
g2
Ntp126
Rp127
(dp128
g11
I0
sg12
F-164.2880662472918
sg13
F-113.44
sg14
F577.3583317103587
sbag0
(g7
g2
Ntp129
Rp130
(dp131
g11
I0
sg12
F-408.9871113757049
sg13
F-113.44
sg14
F470.68426308225924
sbag0
(g7
g2
Ntp132
Rp133
(dp134
g11
I0
sg12
F-183.7750696522909
sg13
F-82.96000000000001
sg14
F183.61952344338633
sbag0
(g7
g2
Ntp135
Rp136
(dp137
g11
I0
sg12
F-243.685160826899
sg13
F-82.96000000000001
sg14
F-217.51783620297388
sbag0
(g7
g2
Ntp138
Rp139
(dp140
g11
I0
sg12
F-368.3623242691767
sg13
F-113.44
sg14
F-330.36233094440433
sbag0
(g7
g2
Ntp141
Rp142
(dp143
g11
I0
sg12
F-232.00741272307343
sg13
F-143.92000000000002
sg14
F-577.0321854396243
sbag0
(g7
g2
Ntp144
Rp145
(dp146
g11
I0
sg12
F373.6016463397026
sg13
F-143.92000000000002
sg14
F-523.3773224318616
sbag0
(g7
g2
Ntp147
Rp148
(dp149
g11
I0
sg12
F110.12007220031427
sg13
F-82.96000000000001
sg14
F-186.9959585515136
sbasS'home'
p150
(imetis.core
GPSWaypoint
p151
(dp152
S'lat'
p153
F38.146293
sS'lon'
p154
F-76.429509
sS'elev'
p155
I0
sbsS'offaxis_location'
p156
g0
(g7
g2
Ntp157
Rp158
(dp159
g11
I0
sg12
F144.4622062457779
sg13
F-22.0
sg14
F-131.19981320832312
sbsb.